; Function Attrs: nounwind uwtable
define dso_local noundef ptr @ExecInitValuesScan(ptr noundef %0, ptr noundef %1, i32 noundef %2) local_unnamed_addr #0 {
  %4 = tail call noundef ptr @palloc0(i64 noundef 256) #3
  store i32 412, ptr %4, align 4
  %5 = getelementptr inbounds nuw i8, ptr %4, i64 8
  store ptr %0, ptr %5, align 8
  %6 = getelementptr inbounds nuw i8, ptr %4, i64 16
  store ptr %1, ptr %6, align 8
  %7 = getelementptr inbounds nuw i8, ptr %4, i64 24
  store ptr @ExecValuesScan, ptr %7, align 8
  tail call void @ExecAssignExprContext(ptr noundef %1, ptr noundef nonnull %4) #3
  %8 = getelementptr inbounds nuw i8, ptr %4, i64 128
  %9 = load ptr, ptr %8, align 8
  %10 = getelementptr inbounds nuw i8, ptr %4, i64 224
  store ptr %9, ptr %10, align 8
  tail call void @ExecAssignExprContext(ptr noundef %1, ptr noundef nonnull %4) #3
  %11 = getelementptr inbounds nuw i8, ptr %0, i64 112
  %12 = load ptr, ptr %11, align 8
  %13 = getelementptr i8, ptr %12, i64 16
  %.val = load ptr, ptr %13, align 8
  %14 = load ptr, ptr %.val, align 8
  %15 = tail call ptr @ExecTypeFromExprList(ptr noundef %14) #3
  tail call void @ExecInitScanTupleSlot(ptr noundef %1, ptr noundef nonnull %4, ptr noundef %15, ptr noundef nonnull @TTSOpsVirtual) #3
  tail call void @ExecInitResultTypeTL(ptr noundef nonnull %4) #3
  tail call void @ExecAssignScanProjectionInfo(ptr noundef nonnull %4) #3
  %16 = getelementptr inbounds nuw i8, ptr %0, i64 56
  %17 = load ptr, ptr %16, align 8
  %18 = tail call ptr @ExecInitQual(ptr noundef %17, ptr noundef nonnull %4) #3
  %19 = getelementptr inbounds nuw i8, ptr %4, i64 64
  store ptr %18, ptr %19, align 8
  %20 = getelementptr inbounds nuw i8, ptr %4, i64 252
  store i32 -1, ptr %20, align 4
  %21 = load ptr, ptr %11, align 8
  %.not.i = icmp eq ptr %21, null
  br i1 %.not.i, label %list_length.exit, label %22

22:                                               ; preds = %3
  %23 = getelementptr inbounds nuw i8, ptr %21, i64 4
  %24 = load i32, ptr %23, align 4
  br label %list_length.exit

list_length.exit:                                 ; preds = %3, %22
  %25 = phi i32 [ %24, %22 ], [ 0, %3 ]
  %26 = getelementptr inbounds nuw i8, ptr %4, i64 248
  store i32 %25, ptr %26, align 8
  %27 = sext i32 %25 to i64
  %28 = shl nsw i64 %27, 3
  %29 = tail call ptr @palloc(i64 noundef %28) #3
  %30 = getelementptr inbounds nuw i8, ptr %4, i64 232
  store ptr %29, ptr %30, align 8
  %31 = load i32, ptr %26, align 8
  %32 = sext i32 %31 to i64
  %33 = shl nsw i64 %32, 3
  %34 = tail call ptr @palloc0(i64 noundef %33) #3
  %35 = getelementptr inbounds nuw i8, ptr %4, i64 240
  store ptr %34, ptr %35, align 8
  %36 = load ptr, ptr %11, align 8
  %37 = getelementptr inbounds nuw i8, ptr %36, i64 4
  %.not = icmp eq ptr %36, null
  br i1 %.not, label %._crit_edge, label %.lr.ph

.lr.ph:                                           ; preds = %list_length.exit
  %38 = getelementptr inbounds nuw i8, ptr %36, i64 16
  %39 = getelementptr inbounds nuw i8, ptr %1, i64 248
  %40 = getelementptr inbounds nuw i8, ptr %1, i64 304
  %41 = load i32, ptr %37, align 4
  %42 = icmp sgt i32 %41, 0
  br i1 %42, label %.lr.ph59, label %._crit_edge

._crit_edge:                                      ; preds = %56, %.lr.ph, %list_length.exit
  ret ptr %4

.lr.ph59:                                         ; preds = %.lr.ph, %56
  %indvars.iv = phi i64 [ %indvars.iv.next, %56 ], [ 0, %.lr.ph ]
  %43 = load ptr, ptr %38, align 8
  %44 = getelementptr inbounds nuw %union.ListCell, ptr %43, i64 %indvars.iv
  %45 = load ptr, ptr %44, align 8
  %46 = load ptr, ptr %30, align 8
  %47 = getelementptr inbounds nuw ptr, ptr %46, i64 %indvars.iv
  store ptr %45, ptr %47, align 8
  %48 = load ptr, ptr %39, align 8
  %.not51 = icmp eq ptr %48, null
  br i1 %.not51, label %56, label %49

49:                                               ; preds = %.lr.ph59
  %50 = tail call zeroext i1 @contain_subplans(ptr noundef %45) #3
  br i1 %50, label %51, label %56

51:                                               ; preds = %49
  %52 = load i32, ptr %40, align 8
  store i32 0, ptr %40, align 8
  %53 = tail call ptr @ExecInitExprList(ptr noundef %45, ptr noundef nonnull %4) #3
  %54 = load ptr, ptr %35, align 8
  %55 = getelementptr inbounds nuw ptr, ptr %54, i64 %indvars.iv
  store ptr %53, ptr %55, align 8
  store i32 %52, ptr %40, align 8
  br label %56

56:                                               ; preds = %51, %49, %.lr.ph59
  %indvars.iv.next = add nuw nsw i64 %indvars.iv, 1
  %57 = load i32, ptr %37, align 4
  %58 = sext i32 %57 to i64
  %59 = icmp slt i64 %indvars.iv.next, %58
  br i1 %59, label %.lr.ph59, label %._crit_edge
}